Certificate:
    Data:
        Version: 3 (0x2)
        Serial Number: 2 (0x2)
        Signature Algorithm: sha1WithRSAEncryption
        Issuer: C=PT, ST=Lisboa, L=Lisboa, O=Contatudo, OU=Contatudo, CN=admin/emailAddress=admin@contatudo.gsr
        Validity
            Not Before: May 22 17:01:56 2017 GMT
            Not After : May 20 17:01:56 2027 GMT
        Subject: C=PT, ST=Lisboa, L=Lisboa, O=Contatudo, OU=Contatudo, CN=admin/emailAddress=admin@contatudo.gsr
        Subject Public Key Info:
            Public Key Algorithm: rsaEncryption
            RSA Public Key: (1024 bit)
                Modulus (1024 bit):
                    00:d4:be:4f:6c:78:2f:a8:b9:7a:e6:ff:28:5a:4f:
                    c9:8f:b1:f1:2b:85:3a:3e:7a:3b:2e:4b:ac:00:2b:
                    72:1b:a0:89:ae:26:8c:02:de:09:61:c0:e9:3a:4f:
                    ed:4e:fe:38:93:d5:49:99:81:22:21:2f:04:0e:b5:
                    5d:24:c2:0a:f8:be:2d:05:36:99:31:8f:e8:99:a6:
                    a4:2e:33:7e:ce:30:ad:c7:54:cb:af:f4:6f:d5:e8:
                    35:b5:bb:d0:bb:4b:ac:31:ab:4e:15:25:17:a0:14:
                    fc:3f:5b:0e:5a:f7:a9:04:43:b9:07:a3:95:43:cf:
                    48:0f:47:b6:57:f3:97:a6:7b
                Exponent: 65537 (0x10001)
        X509v3 extensions:
            X509v3 Basic Constraints: 
                CA:FALSE
            Netscape Comment: 
                Easy-RSA Generated Certificate
            X509v3 Subject Key Identifier: 
                2D:ED:B2:23:6A:4E:E5:D8:62:85:AE:71:8F:CD:DC:20:DF:00:75:0F
            X509v3 Authority Key Identifier: 
                keyid:7C:82:67:31:A3:ED:23:59:91:7C:38:3F:8F:31:11:71:F8:28:AB:88
                DirName:/C=PT/ST=Lisboa/L=Lisboa/O=Contatudo/OU=Contatudo/CN=admin/emailAddress=admin@contatudo.gsr
                serial:DD:9F:49:35:E2:62:F3:0C

            X509v3 Extended Key Usage: 
                TLS Web Client Authentication
            X509v3 Key Usage: 
                Digital Signature
    Signature Algorithm: sha1WithRSAEncryption
        03:ac:10:46:74:ab:d0:9a:35:43:61:64:86:8a:e9:b8:e4:29:
        c8:76:b8:ec:89:6c:2b:7a:6f:35:3b:fc:7c:d8:b7:c1:d2:e5:
        b6:e1:47:96:24:4a:f2:86:7d:17:24:93:35:ec:cb:5c:19:1f:
        09:88:d5:72:c9:18:f0:20:f6:d7:4e:b9:b6:18:c8:a8:5f:83:
        44:a2:c4:39:4c:48:7e:25:58:9d:c6:40:3b:12:a7:90:ad:6d:
        28:fc:ec:70:d5:a9:fd:1f:49:4f:f7:ac:b4:98:bb:b7:1a:1e:
        0b:3e:bc:1a:ba:85:6f:e3:c7:27:77:16:4f:0d:fe:47:34:fb:
        38:28
-----BEGIN CERTIFICATE-----
MIID0jCCAzugAwIBAgIBAjANBgkqhkiG9w0BAQUFADCBizELMAkGA1UEBhMCUFQx
DzANBgNVBAgTBkxpc2JvYTEPMA0GA1UEBxMGTGlzYm9hMRIwEAYDVQQKEwlDb250
YXR1ZG8xEjAQBgNVBAsTCUNvbnRhdHVkbzEOMAwGA1UEAxMFYWRtaW4xIjAgBgkq
hkiG9w0BCQEWE2FkbWluQGNvbnRhdHVkby5nc3IwHhcNMTcwNTIyMTcwMTU2WhcN
MjcwNTIwMTcwMTU2WjCBizELMAkGA1UEBhMCUFQxDzANBgNVBAgTBkxpc2JvYTEP
MA0GA1UEBxMGTGlzYm9hMRIwEAYDVQQKEwlDb250YXR1ZG8xEjAQBgNVBAsTCUNv
bnRhdHVkbzEOMAwGA1UEAxMFYWRtaW4xIjAgBgkqhkiG9w0BCQEWE2FkbWluQGNv
bnRhdHVkby5nc3IwgZ8wDQYJKoZIhvcNAQEBBQADgY0AMIGJAoGBANS+T2x4L6i5
eub/KFpPyY+x8SuFOj56Oy5LrAArchugia4mjALeCWHA6TpP7U7+OJPVSZmBIiEv
BA61XSTCCvi+LQU2mTGP6JmmpC4zfs4wrcdUy6/0b9XoNbW70LtLrDGrThUlF6AU
/D9bDlr3qQRDuQejlUPPSA9Htlfzl6Z7AgMBAAGjggFCMIIBPjAJBgNVHRMEAjAA
MC0GCWCGSAGG+EIBDQQgFh5FYXN5LVJTQSBHZW5lcmF0ZWQgQ2VydGlmaWNhdGUw
HQYDVR0OBBYEFC3tsiNqTuXYYoWucY/N3CDfAHUPMIHABgNVHSMEgbgwgbWAFHyC
ZzGj7SNZkXw4P48xEXH4KKuIoYGRpIGOMIGLMQswCQYDVQQGEwJQVDEPMA0GA1UE
CBMGTGlzYm9hMQ8wDQYDVQQHEwZMaXNib2ExEjAQBgNVBAoTCUNvbnRhdHVkbzES
MBAGA1UECxMJQ29udGF0dWRvMQ4wDAYDVQQDEwVhZG1pbjEiMCAGCSqGSIb3DQEJ
ARYTYWRtaW5AY29udGF0dWRvLmdzcoIJAN2fSTXiYvMMMBMGA1UdJQQMMAoGCCsG
AQUFBwMCMAsGA1UdDwQEAwIHgDANBgkqhkiG9w0BAQUFAAOBgQADrBBGdKvQmjVD
YWSGium45CnIdrjsiWwrem81O/x82LfB0uW24UeWJEryhn0XJJM17MtcGR8JiNVy
yRjwIPbXTrm2GMioX4NEosQ5TEh+JVidxkA7EqeQrW0o/Oxw1an9H0lP96y0mLu3
Gh4LPrwauoVv48cndxZPDf5HNPs4KA==
-----END CERTIFICATE-----
